(lp1
ccopy_reg
_reconstructor
p2
(ccache._base
Data
p3
c__builtin__
object
p4
NtRp5
(dp6
S'record'
p7
g2
(cmodels.student
Student
p8
g4
NtRp9
(dp10
S'first_name'
p11
VJ
sS'last_name'
p12
VJ
sS'id'
p13
I2
sS'_enrolled_courses'
p14
(dp15
I2
(dp16
S'max_marks'
p17
I50
sS'obtained_marks'
p18
I40
sssS'email'
p19
VJ@J
p20
sbsS'created_at'
p21
cdatetime
datetime
p22
(S'\x07\xe1\x05\x1c\x10#\x14\x0cH\x88'
tRp23
sS'last_accessed'
p24
g22
(S'\x07\xe1\x05\x1c\x17\x13!\x00\x00\x00'
tRp25
sS'last_modified'
p26
g25
sS'accessed'
p27
I25
sbag2
(g3
g4
NtRp28
(dp29
g7
g2
(g8
g4
NtRp30
(dp31
g11
VI
sg12
VI
sg13
I1
sg14
(dp32
I1
(dp33
S'max_marks'
p34
I100
sS'obtained_marks'
p35
I50
sssg19
VI@I
p36
sbsg21
g22
(S'\x07\xe1\x05\x1c\x10#\x14\x0cH\x88'
tRp37
sg24
g22
(S'\x07\xe1\x05\x1c\x17\x13!\x00\x00\x00'
tRp38
sg26
g38
sg27
I13
sbag2
(g3
g4
NtRp39
(dp40
g7
g2
(g8
g4
NtRp41
(dp42
g11
VK
sg12
VK
sg13
I5
sg14
(dp43
sg19
VK@K
p44
sbsg21
g22
(S'\x07\xe1\x05\x1c\x17\x049\n\xba\x18'
tRp45
sbag2
(g3
g4
NtRp46
(dp47
g7
g2
(g8
g4
NtRp48
(dp49
g11
VL
sg12
VL
sg13
I6
sg14
(dp50
sg19
VL@L
p51
sbsg21
g22
(S'\x07\xe1\x05\x1c\x17\x049\n\xf8\x98'
tRp52
sbag2
(g3
g4
NtRp53
(dp54
g7
g2
(g8
g4
NtRp55
(dp56
g11
VI
sg12
VI
sg13
I7
sg14
(dp57
sg19
VI@I
p58
sbsg21
g22
(S'\x07\xe1\x05\x1c\x17\x0c\x00\r\xbb\xa0'
tRp59
sbag2
(g3
g4
NtRp60
(dp61
g7
g2
(g8
g4
NtRp62
(dp63
g11
VJ
sg12
VJ
sg13
I8
sg14
(dp64
sg19
VJ@J
p65
sbsg21
g22
(S'\x07\xe1\x05\x1c\x17\x0c\x00\x0e4\xb8'
tRp66
sbag2
(g3
g4
NtRp67
(dp68
g7
g2
(g8
g4
NtRp69
(dp70
g11
VK
sg12
VK
sg13
I9
sg14
(dp71
sg19
VK@K
p72
sbsg21
g22
(S'\x07\xe1\x05\x1c\x17\x0c\x00\x0es8'
tRp73
sbag2
(g3
g4
NtRp74
(dp75
g7
g2
(g8
g4
NtRp76
(dp77
g11
VL
sg12
VL
sg13
I10
sg14
(dp78
sg19
VL@L
p79
sbsg21
g22
(S'\x07\xe1\x05\x1c\x17\x0c\x00\x0e\xad\xd0'
tRp80
sbag2
(g3
g4
NtRp81
(dp82
g7
g2
(g8
g4
NtRp83
(dp84
g11
VI
sg12
VI
sg13
I11
sg14
(dp85
sg19
VI@I
p86
sbsg21
g22
(S'\x07\xe1\x05\x1c\x17\x13 \rY\xf8'
tRp87
sbag2
(g3
g4
NtRp88
(dp89
g7
g2
(g8
g4
NtRp90
(dp91
g11
VJ
sg12
VJ
sg13
I12
sg14
(dp92
sg19
VJ@J
p93
sbsg21
g22
(S'\x07\xe1\x05\x1c\x17\x13 \r\x98x'
tRp94
sbag2
(g3
g4
NtRp95
(dp96
g7
g2
(g8
g4
NtRp97
(dp98
g11
VK
sg12
VK
sg13
I13
sg14
(dp99
sg19
VK@K
p100
sbsg21
g22
(S'\x07\xe1\x05\x1c\x17\x13 \r\xd3\x10'
tRp101
sbag2
(g3
g4
NtRp102
(dp103
g7
g2
(g8
g4
NtRp104
(dp105
g11
VL
sg12
VL
sg13
I14
sg14
(dp106
sg19
VL@L
p107
sbsg21
g22
(S'\x07\xe1\x05\x1c\x17\x13 \r\xd3\x10'
tRp108
sba.